ARM GAS  /tmp/ccwikqIE.s 			page 1


   1              		.cpu cortex-m3
   2              		.arch armv7-m
   3              		.fpu softvfp
   4              		.eabi_attribute 20, 1
   5              		.eabi_attribute 21, 1
   6              		.eabi_attribute 23, 3
   7              		.eabi_attribute 24, 1
   8              		.eabi_attribute 25, 1
   9              		.eabi_attribute 26, 1
  10              		.eabi_attribute 30, 1
  11              		.eabi_attribute 34, 1
  12              		.eabi_attribute 18, 4
  13              		.file	"flash_driver_test.c"
  14              		.text
  15              	.Ltext0:
  16              		.cfi_sections	.debug_frame
  17              		.file 1 "Tests/target_tests/flash_driver/flash_driver_test.c"
  18              		.section	.text.TEST_flash_driver_SETUP,"ax",%progbits
  19              		.align	1
  20              		.global	TEST_flash_driver_SETUP
  21              		.syntax unified
  22              		.thumb
  23              		.thumb_func
  25              	TEST_flash_driver_SETUP:
  26              	.LFB1:
   1:Tests/target_tests/flash_driver/flash_driver_test.c **** #include "unity_fixture.h"
   2:Tests/target_tests/flash_driver/flash_driver_test.c **** #include "flash_driver.h"
   3:Tests/target_tests/flash_driver/flash_driver_test.c **** #include <string.h>
   4:Tests/target_tests/flash_driver/flash_driver_test.c **** 
   5:Tests/target_tests/flash_driver/flash_driver_test.c **** // Static functions ----------------------------------------------------------
   6:Tests/target_tests/flash_driver/flash_driver_test.c **** 
   7:Tests/target_tests/flash_driver/flash_driver_test.c **** static void check_data(
   8:Tests/target_tests/flash_driver/flash_driver_test.c ****   const uint8_t *const expected,
   9:Tests/target_tests/flash_driver/flash_driver_test.c ****   const uint8_t *const actual,
  10:Tests/target_tests/flash_driver/flash_driver_test.c ****   const uint16_t data_size
  11:Tests/target_tests/flash_driver/flash_driver_test.c **** )
  12:Tests/target_tests/flash_driver/flash_driver_test.c **** {
  13:Tests/target_tests/flash_driver/flash_driver_test.c ****   for (uint16_t i = 0; i < data_size; i++)
  14:Tests/target_tests/flash_driver/flash_driver_test.c ****     TEST_ASSERT_BYTES_EQUAL(expected[i], actual[i]);
  15:Tests/target_tests/flash_driver/flash_driver_test.c **** }
  16:Tests/target_tests/flash_driver/flash_driver_test.c **** 
  17:Tests/target_tests/flash_driver/flash_driver_test.c **** // Tests ---------------------------------------------------------------------
  18:Tests/target_tests/flash_driver/flash_driver_test.c **** 
  19:Tests/target_tests/flash_driver/flash_driver_test.c **** TEST_GROUP(flash_driver);
  20:Tests/target_tests/flash_driver/flash_driver_test.c **** 
  21:Tests/target_tests/flash_driver/flash_driver_test.c **** TEST_SETUP(flash_driver)
  22:Tests/target_tests/flash_driver/flash_driver_test.c **** {
  27              		.loc 1 22 1 view -0
  28              		.cfi_startproc
  29              		@ args = 0, pretend = 0, frame = 0
  30              		@ frame_needed = 0, uses_anonymous_args = 0
  31              		@ link register save eliminated.
  23:Tests/target_tests/flash_driver/flash_driver_test.c **** }
  32              		.loc 1 23 1 view .LVU1
  33 0000 7047     		bx	lr
  34              		.cfi_endproc
  35              	.LFE1:
ARM GAS  /tmp/ccwikqIE.s 			page 2


  37              		.section	.text.TEST_flash_driver_TEAR_DOWN,"ax",%progbits
  38              		.align	1
  39              		.global	TEST_flash_driver_TEAR_DOWN
  40              		.syntax unified
  41              		.thumb
  42              		.thumb_func
  44              	TEST_flash_driver_TEAR_DOWN:
  45              	.LFB2:
  24:Tests/target_tests/flash_driver/flash_driver_test.c **** 
  25:Tests/target_tests/flash_driver/flash_driver_test.c **** TEST_TEAR_DOWN(flash_driver)
  26:Tests/target_tests/flash_driver/flash_driver_test.c **** {
  46              		.loc 1 26 1 view -0
  47              		.cfi_startproc
  48              		@ args = 0, pretend = 0, frame = 0
  49              		@ frame_needed = 0, uses_anonymous_args = 0
  50              		@ link register save eliminated.
  27:Tests/target_tests/flash_driver/flash_driver_test.c **** }
  51              		.loc 1 27 1 view .LVU3
  52 0000 7047     		bx	lr
  53              		.cfi_endproc
  54              	.LFE2:
  56              		.section	.text.TEST_flash_driver_check_link_success_,"ax",%progbits
  57              		.align	1
  58              		.global	TEST_flash_driver_check_link_success_
  59              		.syntax unified
  60              		.thumb
  61              		.thumb_func
  63              	TEST_flash_driver_check_link_success_:
  64              	.LFB4:
  28:Tests/target_tests/flash_driver/flash_driver_test.c **** 
  29:Tests/target_tests/flash_driver/flash_driver_test.c **** TEST(flash_driver, check_link_success)
  30:Tests/target_tests/flash_driver/flash_driver_test.c **** {
  65              		.loc 1 30 1 view -0
  66              		.cfi_startproc
  67              		@ args = 0, pretend = 0, frame = 0
  68              		@ frame_needed = 0, uses_anonymous_args = 0
  69 0000 00B5     		push	{lr}
  70              	.LCFI0:
  71              		.cfi_def_cfa_offset 4
  72              		.cfi_offset 14, -4
  73 0002 83B0     		sub	sp, sp, #12
  74              	.LCFI1:
  75              		.cfi_def_cfa_offset 16
  31:Tests/target_tests/flash_driver/flash_driver_test.c ****   flash_driver_status status = flash_driver_check_link();
  76              		.loc 1 31 3 view .LVU5
  77              		.loc 1 31 32 is_stmt 0 view .LVU6
  78 0004 FFF7FEFF 		bl	flash_driver_check_link
  79              	.LVL0:
  80 0008 0146     		mov	r1, r0
  81              	.LVL1:
  32:Tests/target_tests/flash_driver/flash_driver_test.c **** 
  33:Tests/target_tests/flash_driver/flash_driver_test.c ****   TEST_ASSERT_EQUAL(FLASH_DRIVER_OK, status);
  82              		.loc 1 33 3 is_stmt 1 view .LVU7
  83 000a 1423     		movs	r3, #20
  84 000c 0093     		str	r3, [sp]
  85 000e 2123     		movs	r3, #33
  86 0010 0022     		movs	r2, #0
ARM GAS  /tmp/ccwikqIE.s 			page 3


  87 0012 1046     		mov	r0, r2
  88 0014 FFF7FEFF 		bl	UnityAssertEqualNumber
  89              	.LVL2:
  34:Tests/target_tests/flash_driver/flash_driver_test.c **** }
  90              		.loc 1 34 1 is_stmt 0 view .LVU8
  91 0018 03B0     		add	sp, sp, #12
  92              	.LCFI2:
  93              		.cfi_def_cfa_offset 4
  94              		@ sp needed
  95 001a 5DF804FB 		ldr	pc, [sp], #4
  96              		.cfi_endproc
  97              	.LFE4:
  99              		.section	.text.TEST_flash_driver_random_write_and_read_byte_success_,"ax",%progbits
 100              		.align	1
 101              		.global	TEST_flash_driver_random_write_and_read_byte_success_
 102              		.syntax unified
 103              		.thumb
 104              		.thumb_func
 106              	TEST_flash_driver_random_write_and_read_byte_success_:
 107              	.LFB6:
  35:Tests/target_tests/flash_driver/flash_driver_test.c **** 
  36:Tests/target_tests/flash_driver/flash_driver_test.c **** TEST(flash_driver, random_write_and_read_byte_success)
  37:Tests/target_tests/flash_driver/flash_driver_test.c **** {
 108              		.loc 1 37 1 is_stmt 1 view -0
 109              		.cfi_startproc
 110              		@ args = 0, pretend = 0, frame = 8
 111              		@ frame_needed = 0, uses_anonymous_args = 0
 112 0000 10B5     		push	{r4, lr}
 113              	.LCFI3:
 114              		.cfi_def_cfa_offset 8
 115              		.cfi_offset 4, -8
 116              		.cfi_offset 14, -4
 117 0002 84B0     		sub	sp, sp, #16
 118              	.LCFI4:
 119              		.cfi_def_cfa_offset 24
  38:Tests/target_tests/flash_driver/flash_driver_test.c ****   uint8_t output_data = 0x55;
 120              		.loc 1 38 3 view .LVU10
 121              		.loc 1 38 11 is_stmt 0 view .LVU11
 122 0004 5523     		movs	r3, #85
 123 0006 8DF80F30 		strb	r3, [sp, #15]
  39:Tests/target_tests/flash_driver/flash_driver_test.c ****   uint8_t input_data = 0;
 124              		.loc 1 39 3 is_stmt 1 view .LVU12
 125              		.loc 1 39 11 is_stmt 0 view .LVU13
 126 000a 0023     		movs	r3, #0
 127 000c 8DF80E30 		strb	r3, [sp, #14]
  40:Tests/target_tests/flash_driver/flash_driver_test.c **** 
  41:Tests/target_tests/flash_driver/flash_driver_test.c ****   // first element of last sector (4096)
  42:Tests/target_tests/flash_driver/flash_driver_test.c ****   flash_driver_status status = flash_driver_sector_erase(0xfff000);
 128              		.loc 1 42 3 is_stmt 1 view .LVU14
 129              		.loc 1 42 32 is_stmt 0 view .LVU15
 130 0010 1548     		ldr	r0, .L9
 131 0012 FFF7FEFF 		bl	flash_driver_sector_erase
 132              	.LVL3:
  43:Tests/target_tests/flash_driver/flash_driver_test.c **** 
  44:Tests/target_tests/flash_driver/flash_driver_test.c ****   while (flash_driver_is_busy() == FLASH_DRIVER_BUSY) {}
 133              		.loc 1 44 3 is_stmt 1 view .LVU16
 134              	.L6:
ARM GAS  /tmp/ccwikqIE.s 			page 4


 135              		.loc 1 44 56 discriminator 1 view .LVU17
 136              		.loc 1 44 33 discriminator 1 view .LVU18
 137              		.loc 1 44 10 is_stmt 0 discriminator 1 view .LVU19
 138 0016 FFF7FEFF 		bl	flash_driver_is_busy
 139              	.LVL4:
 140              		.loc 1 44 33 discriminator 1 view .LVU20
 141 001a 0228     		cmp	r0, #2
 142 001c FBD0     		beq	.L6
  45:Tests/target_tests/flash_driver/flash_driver_test.c ****   status = flash_driver_write(0xfff000, &output_data, 1);
 143              		.loc 1 45 3 is_stmt 1 view .LVU21
 144              		.loc 1 45 12 is_stmt 0 view .LVU22
 145 001e 0122     		movs	r2, #1
 146 0020 0DF10F01 		add	r1, sp, #15
 147 0024 1048     		ldr	r0, .L9
 148 0026 FFF7FEFF 		bl	flash_driver_write
 149              	.LVL5:
 150 002a 0446     		mov	r4, r0
 151              	.LVL6:
  46:Tests/target_tests/flash_driver/flash_driver_test.c **** 
  47:Tests/target_tests/flash_driver/flash_driver_test.c ****   while (flash_driver_is_busy() == FLASH_DRIVER_BUSY) {}
 152              		.loc 1 47 3 is_stmt 1 view .LVU23
 153              	.L7:
 154              		.loc 1 47 56 discriminator 1 view .LVU24
 155              		.loc 1 47 33 discriminator 1 view .LVU25
 156              		.loc 1 47 10 is_stmt 0 discriminator 1 view .LVU26
 157 002c FFF7FEFF 		bl	flash_driver_is_busy
 158              	.LVL7:
 159              		.loc 1 47 33 discriminator 1 view .LVU27
 160 0030 0228     		cmp	r0, #2
 161 0032 FBD0     		beq	.L7
  48:Tests/target_tests/flash_driver/flash_driver_test.c ****   status |= flash_driver_read(0xfff000, &input_data, 1);
 162              		.loc 1 48 3 is_stmt 1 view .LVU28
 163              		.loc 1 48 13 is_stmt 0 view .LVU29
 164 0034 0122     		movs	r2, #1
 165 0036 0DF10E01 		add	r1, sp, #14
 166 003a 0B48     		ldr	r0, .L9
 167 003c FFF7FEFF 		bl	flash_driver_read
 168              	.LVL8:
 169              		.loc 1 48 10 discriminator 1 view .LVU30
 170 0040 44EA0001 		orr	r1, r4, r0
 171              	.LVL9:
  49:Tests/target_tests/flash_driver/flash_driver_test.c **** 
  50:Tests/target_tests/flash_driver/flash_driver_test.c ****   TEST_ASSERT_EQUAL(FLASH_DRIVER_OK, status);
 172              		.loc 1 50 3 is_stmt 1 view .LVU31
 173 0044 1424     		movs	r4, #20
 174 0046 0094     		str	r4, [sp]
 175 0048 3223     		movs	r3, #50
 176 004a 0022     		movs	r2, #0
 177 004c C9B2     		uxtb	r1, r1
 178              		.loc 1 50 3 is_stmt 0 view .LVU32
 179 004e 1046     		mov	r0, r2
 180 0050 FFF7FEFF 		bl	UnityAssertEqualNumber
 181              	.LVL10:
  51:Tests/target_tests/flash_driver/flash_driver_test.c ****   TEST_ASSERT_EQUAL(0x55, input_data);
 182              		.loc 1 51 3 is_stmt 1 view .LVU33
 183 0054 0094     		str	r4, [sp]
 184 0056 3323     		movs	r3, #51
ARM GAS  /tmp/ccwikqIE.s 			page 5


 185 0058 0022     		movs	r2, #0
 186 005a 9DF80E10 		ldrb	r1, [sp, #14]	@ zero_extendqisi2
 187 005e 5520     		movs	r0, #85
 188 0060 FFF7FEFF 		bl	UnityAssertEqualNumber
 189              	.LVL11:
  52:Tests/target_tests/flash_driver/flash_driver_test.c **** }
 190              		.loc 1 52 1 is_stmt 0 view .LVU34
 191 0064 04B0     		add	sp, sp, #16
 192              	.LCFI5:
 193              		.cfi_def_cfa_offset 8
 194              		@ sp needed
 195 0066 10BD     		pop	{r4, pc}
 196              	.L10:
 197              		.align	2
 198              	.L9:
 199 0068 00F0FF00 		.word	16773120
 200              		.cfi_endproc
 201              	.LFE6:
 203              		.section	.text.TEST_flash_driver_write_and_read_page_success_,"ax",%progbits
 204              		.align	1
 205              		.global	TEST_flash_driver_write_and_read_page_success_
 206              		.syntax unified
 207              		.thumb
 208              		.thumb_func
 210              	TEST_flash_driver_write_and_read_page_success_:
 211              	.LFB8:
  53:Tests/target_tests/flash_driver/flash_driver_test.c **** 
  54:Tests/target_tests/flash_driver/flash_driver_test.c **** TEST(flash_driver, write_and_read_page_success)
  55:Tests/target_tests/flash_driver/flash_driver_test.c **** {
 212              		.loc 1 55 1 is_stmt 1 view -0
 213              		.cfi_startproc
 214              		@ args = 0, pretend = 0, frame = 512
 215              		@ frame_needed = 0, uses_anonymous_args = 0
 216 0000 10B5     		push	{r4, lr}
 217              	.LCFI6:
 218              		.cfi_def_cfa_offset 8
 219              		.cfi_offset 4, -8
 220              		.cfi_offset 14, -4
 221 0002 ADF5047D 		sub	sp, sp, #528
 222              	.LCFI7:
 223              		.cfi_def_cfa_offset 536
  56:Tests/target_tests/flash_driver/flash_driver_test.c ****   uint8_t output_data[256] = { 0x55, 0xaa };
 224              		.loc 1 56 3 view .LVU36
 225              		.loc 1 56 11 is_stmt 0 view .LVU37
 226 0006 4AF65524 		movw	r4, #43605
 227 000a 4494     		str	r4, [sp, #272]
 228 000c FC22     		movs	r2, #252
 229 000e 0021     		movs	r1, #0
 230 0010 45A8     		add	r0, sp, #276
 231 0012 FFF7FEFF 		bl	memset
 232              	.LVL12:
  57:Tests/target_tests/flash_driver/flash_driver_test.c ****   memcpy(output_data + 125, output_data, 2);
 233              		.loc 1 57 3 is_stmt 1 view .LVU38
 234 0016 ADF88D41 		strh	r4, [sp, #397]	@ unaligned
  58:Tests/target_tests/flash_driver/flash_driver_test.c ****   memcpy(output_data + 254, output_data, 2);
 235              		.loc 1 58 3 view .LVU39
 236 001a ADF80E42 		strh	r4, [sp, #526]	@ movhi
ARM GAS  /tmp/ccwikqIE.s 			page 6


  59:Tests/target_tests/flash_driver/flash_driver_test.c ****   uint8_t input_data[256];
 237              		.loc 1 59 3 view .LVU40
  60:Tests/target_tests/flash_driver/flash_driver_test.c **** 
  61:Tests/target_tests/flash_driver/flash_driver_test.c ****   // second page of last sector (256, 4096)
  62:Tests/target_tests/flash_driver/flash_driver_test.c ****   flash_driver_status status = FLASH_DRIVER_OK;
 238              		.loc 1 62 3 view .LVU41
 239              	.LVL13:
  63:Tests/target_tests/flash_driver/flash_driver_test.c ****   while (flash_driver_is_busy() == FLASH_DRIVER_BUSY) {}
 240              		.loc 1 63 3 view .LVU42
 241              	.L12:
 242              		.loc 1 63 56 discriminator 1 view .LVU43
 243              		.loc 1 63 33 discriminator 1 view .LVU44
 244              		.loc 1 63 10 is_stmt 0 discriminator 1 view .LVU45
 245 001e FFF7FEFF 		bl	flash_driver_is_busy
 246              	.LVL14:
 247              		.loc 1 63 33 discriminator 1 view .LVU46
 248 0022 0228     		cmp	r0, #2
 249 0024 FBD0     		beq	.L12
  64:Tests/target_tests/flash_driver/flash_driver_test.c ****   status = flash_driver_write(
 250              		.loc 1 64 3 is_stmt 1 view .LVU47
 251              		.loc 1 64 12 is_stmt 0 view .LVU48
 252 0026 4FF48072 		mov	r2, #256
 253 002a 44A9     		add	r1, sp, #272
 254 002c 1348     		ldr	r0, .L15
 255 002e FFF7FEFF 		bl	flash_driver_write
 256              	.LVL15:
 257 0032 0446     		mov	r4, r0
 258              	.LVL16:
  65:Tests/target_tests/flash_driver/flash_driver_test.c ****     0xfff100,
  66:Tests/target_tests/flash_driver/flash_driver_test.c ****     output_data,
  67:Tests/target_tests/flash_driver/flash_driver_test.c ****     sizeof(output_data)
  68:Tests/target_tests/flash_driver/flash_driver_test.c ****   );
  69:Tests/target_tests/flash_driver/flash_driver_test.c ****   while (flash_driver_is_busy() == FLASH_DRIVER_BUSY) {}
 259              		.loc 1 69 3 is_stmt 1 view .LVU49
 260              	.L13:
 261              		.loc 1 69 56 discriminator 1 view .LVU50
 262              		.loc 1 69 33 discriminator 1 view .LVU51
 263              		.loc 1 69 10 is_stmt 0 discriminator 1 view .LVU52
 264 0034 FFF7FEFF 		bl	flash_driver_is_busy
 265              	.LVL17:
 266              		.loc 1 69 33 discriminator 1 view .LVU53
 267 0038 0228     		cmp	r0, #2
 268 003a FBD0     		beq	.L13
  70:Tests/target_tests/flash_driver/flash_driver_test.c ****   status |= flash_driver_read(0xfff100, &input_data, sizeof(input_data));
 269              		.loc 1 70 3 is_stmt 1 view .LVU54
 270              		.loc 1 70 13 is_stmt 0 view .LVU55
 271 003c 4FF48072 		mov	r2, #256
 272 0040 04A9     		add	r1, sp, #16
 273 0042 0E48     		ldr	r0, .L15
 274 0044 FFF7FEFF 		bl	flash_driver_read
 275              	.LVL18:
 276              		.loc 1 70 10 discriminator 1 view .LVU56
 277 0048 44EA0001 		orr	r1, r4, r0
 278              	.LVL19:
  71:Tests/target_tests/flash_driver/flash_driver_test.c **** 
  72:Tests/target_tests/flash_driver/flash_driver_test.c ****   TEST_ASSERT_EQUAL(FLASH_DRIVER_OK, status);
 279              		.loc 1 72 3 is_stmt 1 view .LVU57
ARM GAS  /tmp/ccwikqIE.s 			page 7


 280 004c 1423     		movs	r3, #20
 281 004e 0093     		str	r3, [sp]
 282 0050 4823     		movs	r3, #72
 283 0052 0022     		movs	r2, #0
 284 0054 C9B2     		uxtb	r1, r1
 285              		.loc 1 72 3 is_stmt 0 view .LVU58
 286 0056 1046     		mov	r0, r2
 287 0058 FFF7FEFF 		bl	UnityAssertEqualNumber
 288              	.LVL20:
  73:Tests/target_tests/flash_driver/flash_driver_test.c ****   TEST_ASSERT_EQUAL_HEX8_ARRAY(output_data, input_data, sizeof(output_data));
 289              		.loc 1 73 3 is_stmt 1 view .LVU59
 290 005c 0123     		movs	r3, #1
 291 005e 0293     		str	r3, [sp, #8]
 292 0060 4123     		movs	r3, #65
 293 0062 0193     		str	r3, [sp, #4]
 294 0064 4923     		movs	r3, #73
 295 0066 0093     		str	r3, [sp]
 296 0068 0023     		movs	r3, #0
 297 006a 4FF48072 		mov	r2, #256
 298 006e 04A9     		add	r1, sp, #16
 299 0070 44A8     		add	r0, sp, #272
 300 0072 FFF7FEFF 		bl	UnityAssertEqualIntArray
 301              	.LVL21:
  74:Tests/target_tests/flash_driver/flash_driver_test.c **** }
 302              		.loc 1 74 1 is_stmt 0 view .LVU60
 303 0076 0DF5047D 		add	sp, sp, #528
 304              	.LCFI8:
 305              		.cfi_def_cfa_offset 8
 306              		@ sp needed
 307 007a 10BD     		pop	{r4, pc}
 308              	.L16:
 309              		.loc 1 74 1 view .LVU61
 310              		.align	2
 311              	.L15:
 312 007c 00F1FF00 		.word	16773376
 313              		.cfi_endproc
 314              	.LFE8:
 316              		.section	.text.TEST_flash_driver_write_and_read_multiple_pages_success_,"ax",%progbits
 317              		.align	1
 318              		.global	TEST_flash_driver_write_and_read_multiple_pages_success_
 319              		.syntax unified
 320              		.thumb
 321              		.thumb_func
 323              	TEST_flash_driver_write_and_read_multiple_pages_success_:
 324              	.LFB10:
  75:Tests/target_tests/flash_driver/flash_driver_test.c **** 
  76:Tests/target_tests/flash_driver/flash_driver_test.c **** TEST(flash_driver, write_and_read_multiple_pages_success)
  77:Tests/target_tests/flash_driver/flash_driver_test.c **** {
 325              		.loc 1 77 1 is_stmt 1 view -0
 326              		.cfi_startproc
 327              		@ args = 0, pretend = 0, frame = 7168
 328              		@ frame_needed = 0, uses_anonymous_args = 0
 329 0000 30B5     		push	{r4, r5, lr}
 330              	.LCFI9:
 331              		.cfi_def_cfa_offset 12
 332              		.cfi_offset 4, -12
 333              		.cfi_offset 5, -8
ARM GAS  /tmp/ccwikqIE.s 			page 8


 334              		.cfi_offset 14, -4
 335 0002 ADF5E05D 		sub	sp, sp, #7168
 336              	.LCFI10:
 337              		.cfi_def_cfa_offset 7180
 338 0006 85B0     		sub	sp, sp, #20
 339              	.LCFI11:
 340              		.cfi_def_cfa_offset 7200
  78:Tests/target_tests/flash_driver/flash_driver_test.c ****   uint8_t output_data[3584] = { 0x55, 0xaa }; // 14 pages
 341              		.loc 1 78 3 view .LVU63
 342              		.loc 1 78 11 is_stmt 0 view .LVU64
 343 0008 4AF65523 		movw	r3, #43605
 344 000c CDF8103E 		str	r3, [sp, #3600]
 345 0010 40F6FC52 		movw	r2, #3580
 346 0014 0021     		movs	r1, #0
 347 0016 0DF61460 		addw	r0, sp, #3604
 348 001a FFF7FEFF 		bl	memset
 349              	.LVL22:
  79:Tests/target_tests/flash_driver/flash_driver_test.c ****   memset(output_data + 2, 0, sizeof(output_data) - 2);
 350              		.loc 1 79 3 is_stmt 1 view .LVU65
 351 001e 40F6FE52 		movw	r2, #3582
 352 0022 0021     		movs	r1, #0
 353 0024 0DF61260 		addw	r0, sp, #3602
 354 0028 FFF7FEFF 		bl	memset
 355              	.LVL23:
  80:Tests/target_tests/flash_driver/flash_driver_test.c ****   uint8_t input_data[3584];
 356              		.loc 1 80 3 view .LVU66
  81:Tests/target_tests/flash_driver/flash_driver_test.c ****   memset(input_data, 0, sizeof(input_data));
 357              		.loc 1 81 3 view .LVU67
 358 002c 4FF46062 		mov	r2, #3584
 359 0030 0021     		movs	r1, #0
 360 0032 04A8     		add	r0, sp, #16
 361 0034 FFF7FEFF 		bl	memset
 362              	.LVL24:
  82:Tests/target_tests/flash_driver/flash_driver_test.c **** 
  83:Tests/target_tests/flash_driver/flash_driver_test.c ****   for (uint16_t i = 125; i < 3584; i++)
 363              		.loc 1 83 3 view .LVU68
 364              	.LBB2:
 365              		.loc 1 83 8 view .LVU69
 366              		.loc 1 83 17 is_stmt 0 view .LVU70
 367 0038 7D23     		movs	r3, #125
 368              		.loc 1 83 3 view .LVU71
 369 003a 06E0     		b	.L18
 370              	.LVL25:
 371              	.L19:
  84:Tests/target_tests/flash_driver/flash_driver_test.c ****     memcpy(output_data + i, output_data, 2);
 372              		.loc 1 84 5 is_stmt 1 view .LVU72
 373 003c 0DF56162 		add	r2, sp, #3600
 374 0040 BDF8101E 		ldrh	r1, [sp, #3600]
 375 0044 D152     		strh	r1, [r2, r3]	@ unaligned
  83:Tests/target_tests/flash_driver/flash_driver_test.c ****     memcpy(output_data + i, output_data, 2);
 376              		.loc 1 83 37 discriminator 3 view .LVU73
 377 0046 0133     		adds	r3, r3, #1
 378              	.LVL26:
  83:Tests/target_tests/flash_driver/flash_driver_test.c ****     memcpy(output_data + i, output_data, 2);
 379              		.loc 1 83 37 is_stmt 0 discriminator 3 view .LVU74
 380 0048 9BB2     		uxth	r3, r3
 381              	.LVL27:
ARM GAS  /tmp/ccwikqIE.s 			page 9


 382              	.L18:
  83:Tests/target_tests/flash_driver/flash_driver_test.c ****     memcpy(output_data + i, output_data, 2);
 383              		.loc 1 83 28 is_stmt 1 discriminator 1 view .LVU75
 384 004a B3F5606F 		cmp	r3, #3584
 385 004e F5D3     		bcc	.L19
 386              	.LBE2:
 387              	.LBB3:
  85:Tests/target_tests/flash_driver/flash_driver_test.c **** 
  86:Tests/target_tests/flash_driver/flash_driver_test.c ****   // third page of last sector (512, 4096)
  87:Tests/target_tests/flash_driver/flash_driver_test.c ****   flash_driver_status status = FLASH_DRIVER_OK;
  88:Tests/target_tests/flash_driver/flash_driver_test.c ****   for (uint16_t i = 0; i < 3584; i += 256)
 388              		.loc 1 88 17 is_stmt 0 view .LVU76
 389 0050 0024     		movs	r4, #0
 390              	.LBE3:
  87:Tests/target_tests/flash_driver/flash_driver_test.c ****   for (uint16_t i = 0; i < 3584; i += 256)
 391              		.loc 1 87 23 view .LVU77
 392 0052 2546     		mov	r5, r4
 393 0054 12E0     		b	.L20
 394              	.LVL28:
 395              	.L21:
 396              	.LBB4:
  89:Tests/target_tests/flash_driver/flash_driver_test.c ****   {
  90:Tests/target_tests/flash_driver/flash_driver_test.c ****     while (flash_driver_is_busy() == FLASH_DRIVER_BUSY) {}
 397              		.loc 1 90 58 is_stmt 1 discriminator 1 view .LVU78
 398              		.loc 1 90 35 discriminator 1 view .LVU79
 399              		.loc 1 90 12 is_stmt 0 discriminator 1 view .LVU80
 400 0056 FFF7FEFF 		bl	flash_driver_is_busy
 401              	.LVL29:
 402              		.loc 1 90 35 discriminator 1 view .LVU81
 403 005a 0228     		cmp	r0, #2
 404 005c FBD0     		beq	.L21
  91:Tests/target_tests/flash_driver/flash_driver_test.c ****     status = flash_driver_write(
 405              		.loc 1 91 5 is_stmt 1 view .LVU82
 406              		.loc 1 91 14 is_stmt 0 view .LVU83
 407 005e 4FF48072 		mov	r2, #256
 408 0062 0DF56163 		add	r3, sp, #3600
 409 0066 1919     		adds	r1, r3, r4
 410 0068 04F57F00 		add	r0, r4, #16711680
 411 006c 00F57240 		add	r0, r0, #61952
 412 0070 FFF7FEFF 		bl	flash_driver_write
 413              	.LVL30:
 414 0074 0546     		mov	r5, r0
 415              	.LVL31:
  88:Tests/target_tests/flash_driver/flash_driver_test.c ****   {
 416              		.loc 1 88 36 is_stmt 1 discriminator 2 view .LVU84
 417 0076 04F58074 		add	r4, r4, #256
 418              	.LVL32:
  88:Tests/target_tests/flash_driver/flash_driver_test.c ****   {
 419              		.loc 1 88 36 is_stmt 0 discriminator 2 view .LVU85
 420 007a A4B2     		uxth	r4, r4
 421              	.LVL33:
 422              	.L20:
  88:Tests/target_tests/flash_driver/flash_driver_test.c ****   {
 423              		.loc 1 88 26 is_stmt 1 discriminator 1 view .LVU86
 424 007c B4F5606F 		cmp	r4, #3584
 425 0080 E9D3     		bcc	.L21
 426              	.L22:
ARM GAS  /tmp/ccwikqIE.s 			page 10


 427              	.LBE4:
  92:Tests/target_tests/flash_driver/flash_driver_test.c ****       0xfff200 + i,
  93:Tests/target_tests/flash_driver/flash_driver_test.c ****       output_data + i,
  94:Tests/target_tests/flash_driver/flash_driver_test.c ****       256
  95:Tests/target_tests/flash_driver/flash_driver_test.c ****     );
  96:Tests/target_tests/flash_driver/flash_driver_test.c ****   }
  97:Tests/target_tests/flash_driver/flash_driver_test.c ****   while (flash_driver_is_busy() == FLASH_DRIVER_BUSY) {}
 428              		.loc 1 97 56 discriminator 1 view .LVU87
 429              		.loc 1 97 33 discriminator 1 view .LVU88
 430              		.loc 1 97 10 is_stmt 0 discriminator 1 view .LVU89
 431 0082 FFF7FEFF 		bl	flash_driver_is_busy
 432              	.LVL34:
 433              		.loc 1 97 33 discriminator 1 view .LVU90
 434 0086 0228     		cmp	r0, #2
 435 0088 FBD0     		beq	.L22
  98:Tests/target_tests/flash_driver/flash_driver_test.c ****   status |= flash_driver_read(0xfff200, &input_data, sizeof(input_data));
 436              		.loc 1 98 3 is_stmt 1 view .LVU91
 437              		.loc 1 98 13 is_stmt 0 view .LVU92
 438 008a 4FF46062 		mov	r2, #3584
 439 008e 04A9     		add	r1, sp, #16
 440 0090 0F48     		ldr	r0, .L24
 441 0092 FFF7FEFF 		bl	flash_driver_read
 442              	.LVL35:
 443              		.loc 1 98 10 discriminator 1 view .LVU93
 444 0096 45EA0001 		orr	r1, r5, r0
 445              	.LVL36:
  99:Tests/target_tests/flash_driver/flash_driver_test.c **** 
 100:Tests/target_tests/flash_driver/flash_driver_test.c ****   TEST_ASSERT_EQUAL(FLASH_DRIVER_OK, status);
 446              		.loc 1 100 3 is_stmt 1 view .LVU94
 447 009a 1423     		movs	r3, #20
 448 009c 0093     		str	r3, [sp]
 449 009e 6423     		movs	r3, #100
 450 00a0 0022     		movs	r2, #0
 451 00a2 C9B2     		uxtb	r1, r1
 452              		.loc 1 100 3 is_stmt 0 view .LVU95
 453 00a4 1046     		mov	r0, r2
 454 00a6 FFF7FEFF 		bl	UnityAssertEqualNumber
 455              	.LVL37:
 101:Tests/target_tests/flash_driver/flash_driver_test.c ****   TEST_ASSERT_EQUAL_HEX8_ARRAY(output_data, input_data, sizeof(output_data));
 456              		.loc 1 101 3 is_stmt 1 view .LVU96
 457 00aa 0123     		movs	r3, #1
 458 00ac 0293     		str	r3, [sp, #8]
 459 00ae 4123     		movs	r3, #65
 460 00b0 0193     		str	r3, [sp, #4]
 461 00b2 6523     		movs	r3, #101
 462 00b4 0093     		str	r3, [sp]
 463 00b6 0023     		movs	r3, #0
 464 00b8 4FF46062 		mov	r2, #3584
 465 00bc 04A9     		add	r1, sp, #16
 466 00be 0DF56160 		add	r0, sp, #3600
 467 00c2 FFF7FEFF 		bl	UnityAssertEqualIntArray
 468              	.LVL38:
 102:Tests/target_tests/flash_driver/flash_driver_test.c **** }
 469              		.loc 1 102 1 is_stmt 0 view .LVU97
 470 00c6 0DF5E05D 		add	sp, sp, #7168
 471 00ca 05B0     		add	sp, sp, #20
 472              	.LCFI12:
ARM GAS  /tmp/ccwikqIE.s 			page 11


 473              		.cfi_def_cfa_offset 12
 474              		@ sp needed
 475 00cc 30BD     		pop	{r4, r5, pc}
 476              	.LVL39:
 477              	.L25:
 478              		.loc 1 102 1 view .LVU98
 479 00ce 00BF     		.align	2
 480              	.L24:
 481 00d0 00F2FF00 		.word	16773632
 482              		.cfi_endproc
 483              	.LFE10:
 485              		.section	.rodata.TEST_flash_driver_check_link_success_run.str1.4,"aMS",%progbits,1
 486              		.align	2
 487              	.LC0:
 488 0000 54455354 		.ascii	"TEST(flash_driver, check_link_success)\000"
 488      28666C61 
 488      73685F64 
 488      72697665 
 488      722C2063 
 489 0027 00       		.align	2
 490              	.LC1:
 491 0028 54657374 		.ascii	"Tests/target_tests/flash_driver/flash_driver_test.c"
 491      732F7461 
 491      72676574 
 491      5F746573 
 491      74732F66 
 492 005b 00       		.ascii	"\000"
 493              		.align	2
 494              	.LC2:
 495 005c 63686563 		.ascii	"check_link_success\000"
 495      6B5F6C69 
 495      6E6B5F73 
 495      75636365 
 495      737300
 496 006f 00       		.align	2
 497              	.LC3:
 498 0070 666C6173 		.ascii	"flash_driver\000"
 498      685F6472 
 498      69766572 
 498      00
 499              		.section	.text.TEST_flash_driver_check_link_success_run,"ax",%progbits
 500              		.align	1
 501              		.global	TEST_flash_driver_check_link_success_run
 502              		.syntax unified
 503              		.thumb
 504              		.thumb_func
 506              	TEST_flash_driver_check_link_success_run:
 507              	.LFB3:
  29:Tests/target_tests/flash_driver/flash_driver_test.c **** {
 508              		.loc 1 29 1 is_stmt 1 view -0
 509              		.cfi_startproc
 510              		@ args = 0, pretend = 0, frame = 0
 511              		@ frame_needed = 0, uses_anonymous_args = 0
 512 0000 00B5     		push	{lr}
 513              	.LCFI13:
 514              		.cfi_def_cfa_offset 4
 515              		.cfi_offset 14, -4
ARM GAS  /tmp/ccwikqIE.s 			page 12


 516 0002 85B0     		sub	sp, sp, #20
 517              	.LCFI14:
 518              		.cfi_def_cfa_offset 24
  29:Tests/target_tests/flash_driver/flash_driver_test.c **** {
 519              		.loc 1 29 1 view .LVU100
 520 0004 1D23     		movs	r3, #29
 521 0006 0393     		str	r3, [sp, #12]
 522 0008 074B     		ldr	r3, .L28
 523 000a 0293     		str	r3, [sp, #8]
 524 000c 074B     		ldr	r3, .L28+4
 525 000e 0193     		str	r3, [sp, #4]
 526 0010 074B     		ldr	r3, .L28+8
 527 0012 0093     		str	r3, [sp]
 528 0014 074B     		ldr	r3, .L28+12
 529 0016 084A     		ldr	r2, .L28+16
 530 0018 0849     		ldr	r1, .L28+20
 531 001a 0948     		ldr	r0, .L28+24
 532 001c FFF7FEFF 		bl	UnityTestRunner
 533              	.LVL40:
 534 0020 05B0     		add	sp, sp, #20
 535              	.LCFI15:
 536              		.cfi_def_cfa_offset 4
 537              		@ sp needed
 538 0022 5DF804FB 		ldr	pc, [sp], #4
 539              	.L29:
 540 0026 00BF     		.align	2
 541              	.L28:
 542 0028 28000000 		.word	.LC1
 543 002c 5C000000 		.word	.LC2
 544 0030 70000000 		.word	.LC3
 545 0034 00000000 		.word	.LC0
 546 0038 00000000 		.word	TEST_flash_driver_TEAR_DOWN
 547 003c 00000000 		.word	TEST_flash_driver_check_link_success_
 548 0040 00000000 		.word	TEST_flash_driver_SETUP
 549              		.cfi_endproc
 550              	.LFE3:
 552              		.section	.rodata.TEST_flash_driver_random_write_and_read_byte_success_run.str1.4,"aMS",%progbits,1
 553              		.align	2
 554              	.LC4:
 555 0000 54455354 		.ascii	"TEST(flash_driver, random_write_and_read_byte_succe"
 555      28666C61 
 555      73685F64 
 555      72697665 
 555      722C2072 
 556 0033 73732900 		.ascii	"ss)\000"
 557 0037 00       		.align	2
 558              	.LC5:
 559 0038 72616E64 		.ascii	"random_write_and_read_byte_success\000"
 559      6F6D5F77 
 559      72697465 
 559      5F616E64 
 559      5F726561 
 560              		.section	.text.TEST_flash_driver_random_write_and_read_byte_success_run,"ax",%progbits
 561              		.align	1
 562              		.global	TEST_flash_driver_random_write_and_read_byte_success_run
 563              		.syntax unified
 564              		.thumb
ARM GAS  /tmp/ccwikqIE.s 			page 13


 565              		.thumb_func
 567              	TEST_flash_driver_random_write_and_read_byte_success_run:
 568              	.LFB5:
  36:Tests/target_tests/flash_driver/flash_driver_test.c **** {
 569              		.loc 1 36 1 view -0
 570              		.cfi_startproc
 571              		@ args = 0, pretend = 0, frame = 0
 572              		@ frame_needed = 0, uses_anonymous_args = 0
 573 0000 00B5     		push	{lr}
 574              	.LCFI16:
 575              		.cfi_def_cfa_offset 4
 576              		.cfi_offset 14, -4
 577 0002 85B0     		sub	sp, sp, #20
 578              	.LCFI17:
 579              		.cfi_def_cfa_offset 24
  36:Tests/target_tests/flash_driver/flash_driver_test.c **** {
 580              		.loc 1 36 1 view .LVU102
 581 0004 2423     		movs	r3, #36
 582 0006 0393     		str	r3, [sp, #12]
 583 0008 074B     		ldr	r3, .L32
 584 000a 0293     		str	r3, [sp, #8]
 585 000c 074B     		ldr	r3, .L32+4
 586 000e 0193     		str	r3, [sp, #4]
 587 0010 074B     		ldr	r3, .L32+8
 588 0012 0093     		str	r3, [sp]
 589 0014 074B     		ldr	r3, .L32+12
 590 0016 084A     		ldr	r2, .L32+16
 591 0018 0849     		ldr	r1, .L32+20
 592 001a 0948     		ldr	r0, .L32+24
 593 001c FFF7FEFF 		bl	UnityTestRunner
 594              	.LVL41:
 595 0020 05B0     		add	sp, sp, #20
 596              	.LCFI18:
 597              		.cfi_def_cfa_offset 4
 598              		@ sp needed
 599 0022 5DF804FB 		ldr	pc, [sp], #4
 600              	.L33:
 601 0026 00BF     		.align	2
 602              	.L32:
 603 0028 28000000 		.word	.LC1
 604 002c 38000000 		.word	.LC5
 605 0030 70000000 		.word	.LC3
 606 0034 00000000 		.word	.LC4
 607 0038 00000000 		.word	TEST_flash_driver_TEAR_DOWN
 608 003c 00000000 		.word	TEST_flash_driver_random_write_and_read_byte_success_
 609 0040 00000000 		.word	TEST_flash_driver_SETUP
 610              		.cfi_endproc
 611              	.LFE5:
 613              		.section	.rodata.TEST_flash_driver_write_and_read_page_success_run.str1.4,"aMS",%progbits,1
 614              		.align	2
 615              	.LC6:
 616 0000 54455354 		.ascii	"TEST(flash_driver, write_and_read_page_success)\000"
 616      28666C61 
 616      73685F64 
 616      72697665 
 616      722C2077 
 617              		.align	2
ARM GAS  /tmp/ccwikqIE.s 			page 14


 618              	.LC7:
 619 0030 77726974 		.ascii	"write_and_read_page_success\000"
 619      655F616E 
 619      645F7265 
 619      61645F70 
 619      6167655F 
 620              		.section	.text.TEST_flash_driver_write_and_read_page_success_run,"ax",%progbits
 621              		.align	1
 622              		.global	TEST_flash_driver_write_and_read_page_success_run
 623              		.syntax unified
 624              		.thumb
 625              		.thumb_func
 627              	TEST_flash_driver_write_and_read_page_success_run:
 628              	.LFB7:
  54:Tests/target_tests/flash_driver/flash_driver_test.c **** {
 629              		.loc 1 54 1 view -0
 630              		.cfi_startproc
 631              		@ args = 0, pretend = 0, frame = 0
 632              		@ frame_needed = 0, uses_anonymous_args = 0
 633 0000 00B5     		push	{lr}
 634              	.LCFI19:
 635              		.cfi_def_cfa_offset 4
 636              		.cfi_offset 14, -4
 637 0002 85B0     		sub	sp, sp, #20
 638              	.LCFI20:
 639              		.cfi_def_cfa_offset 24
  54:Tests/target_tests/flash_driver/flash_driver_test.c **** {
 640              		.loc 1 54 1 view .LVU104
 641 0004 3623     		movs	r3, #54
 642 0006 0393     		str	r3, [sp, #12]
 643 0008 074B     		ldr	r3, .L36
 644 000a 0293     		str	r3, [sp, #8]
 645 000c 074B     		ldr	r3, .L36+4
 646 000e 0193     		str	r3, [sp, #4]
 647 0010 074B     		ldr	r3, .L36+8
 648 0012 0093     		str	r3, [sp]
 649 0014 074B     		ldr	r3, .L36+12
 650 0016 084A     		ldr	r2, .L36+16
 651 0018 0849     		ldr	r1, .L36+20
 652 001a 0948     		ldr	r0, .L36+24
 653 001c FFF7FEFF 		bl	UnityTestRunner
 654              	.LVL42:
 655 0020 05B0     		add	sp, sp, #20
 656              	.LCFI21:
 657              		.cfi_def_cfa_offset 4
 658              		@ sp needed
 659 0022 5DF804FB 		ldr	pc, [sp], #4
 660              	.L37:
 661 0026 00BF     		.align	2
 662              	.L36:
 663 0028 28000000 		.word	.LC1
 664 002c 30000000 		.word	.LC7
 665 0030 70000000 		.word	.LC3
 666 0034 00000000 		.word	.LC6
 667 0038 00000000 		.word	TEST_flash_driver_TEAR_DOWN
 668 003c 00000000 		.word	TEST_flash_driver_write_and_read_page_success_
 669 0040 00000000 		.word	TEST_flash_driver_SETUP
ARM GAS  /tmp/ccwikqIE.s 			page 15


 670              		.cfi_endproc
 671              	.LFE7:
 673              		.section	.rodata.TEST_flash_driver_write_and_read_multiple_pages_success_run.str1.4,"aMS",%progbit
 674              		.align	2
 675              	.LC8:
 676 0000 54455354 		.ascii	"TEST(flash_driver, write_and_read_multiple_pages_su"
 676      28666C61 
 676      73685F64 
 676      72697665 
 676      722C2077 
 677 0033 63636573 		.ascii	"ccess)\000"
 677      732900
 678 003a 0000     		.align	2
 679              	.LC9:
 680 003c 77726974 		.ascii	"write_and_read_multiple_pages_success\000"
 680      655F616E 
 680      645F7265 
 680      61645F6D 
 680      756C7469 
 681              		.section	.text.TEST_flash_driver_write_and_read_multiple_pages_success_run,"ax",%progbits
 682              		.align	1
 683              		.global	TEST_flash_driver_write_and_read_multiple_pages_success_run
 684              		.syntax unified
 685              		.thumb
 686              		.thumb_func
 688              	TEST_flash_driver_write_and_read_multiple_pages_success_run:
 689              	.LFB9:
  76:Tests/target_tests/flash_driver/flash_driver_test.c **** {
 690              		.loc 1 76 1 view -0
 691              		.cfi_startproc
 692              		@ args = 0, pretend = 0, frame = 0
 693              		@ frame_needed = 0, uses_anonymous_args = 0
 694 0000 00B5     		push	{lr}
 695              	.LCFI22:
 696              		.cfi_def_cfa_offset 4
 697              		.cfi_offset 14, -4
 698 0002 85B0     		sub	sp, sp, #20
 699              	.LCFI23:
 700              		.cfi_def_cfa_offset 24
  76:Tests/target_tests/flash_driver/flash_driver_test.c **** {
 701              		.loc 1 76 1 view .LVU106
 702 0004 4C23     		movs	r3, #76
 703 0006 0393     		str	r3, [sp, #12]
 704 0008 074B     		ldr	r3, .L40
 705 000a 0293     		str	r3, [sp, #8]
 706 000c 074B     		ldr	r3, .L40+4
 707 000e 0193     		str	r3, [sp, #4]
 708 0010 074B     		ldr	r3, .L40+8
 709 0012 0093     		str	r3, [sp]
 710 0014 074B     		ldr	r3, .L40+12
 711 0016 084A     		ldr	r2, .L40+16
 712 0018 0849     		ldr	r1, .L40+20
 713 001a 0948     		ldr	r0, .L40+24
 714 001c FFF7FEFF 		bl	UnityTestRunner
 715              	.LVL43:
 716 0020 05B0     		add	sp, sp, #20
 717              	.LCFI24:
ARM GAS  /tmp/ccwikqIE.s 			page 16


 718              		.cfi_def_cfa_offset 4
 719              		@ sp needed
 720 0022 5DF804FB 		ldr	pc, [sp], #4
 721              	.L41:
 722 0026 00BF     		.align	2
 723              	.L40:
 724 0028 28000000 		.word	.LC1
 725 002c 3C000000 		.word	.LC9
 726 0030 70000000 		.word	.LC3
 727 0034 00000000 		.word	.LC8
 728 0038 00000000 		.word	TEST_flash_driver_TEAR_DOWN
 729 003c 00000000 		.word	TEST_flash_driver_write_and_read_multiple_pages_success_
 730 0040 00000000 		.word	TEST_flash_driver_SETUP
 731              		.cfi_endproc
 732              	.LFE9:
 734              		.text
 735              	.Letext0:
 736              		.file 2 "/usr/local/src/arm-gnu-toolchain-13.2/arm-none-eabi/include/machine/_default_types.h"
 737              		.file 3 "/usr/local/src/arm-gnu-toolchain-13.2/arm-none-eabi/include/sys/_stdint.h"
 738              		.file 4 "/usr/local/src/arm-gnu-toolchain-13.2/lib/gcc/arm-none-eabi/13.2.1/include/stddef.h"
 739              		.file 5 "External/Unity-2.5.2/src/unity_internals.h"
 740              		.file 6 "External/Unity-2.5.2/extras/fixture/src/unity_fixture_internals.h"
 741              		.file 7 "External/flash_driver/Inc/flash_driver_defs.h"
 742              		.file 8 "/usr/local/src/arm-gnu-toolchain-13.2/arm-none-eabi/include/string.h"
 743              		.file 9 "External/flash_driver/Inc/flash_driver.h"
 744              		.file 10 "<built-in>"
ARM GAS  /tmp/ccwikqIE.s 			page 17

